; Function Attrs: nounwind uwtable
define hidden ptr @PyAnextAwaitable_New(ptr noundef %0, ptr noundef %1) local_unnamed_addr #0 {
  %3 = tail call ptr @_PyObject_GC_New(ptr noundef nonnull @_PyAnextAwaitable_Type) #4
  %4 = icmp eq ptr %3, null
  br i1 %4, label %39, label %5

5:                                                ; preds = %2
  %6 = load i32, ptr %0, align 8, !tbaa !13
  %7 = icmp slt i32 %6, 0
  br i1 %7, label %_Py_NewRef.exit, label %8

8:                                                ; preds = %5
  %9 = add nuw i32 %6, 1
  store i32 %9, ptr %0, align 8, !tbaa !13
  br label %_Py_NewRef.exit

_Py_NewRef.exit:                                  ; preds = %5, %8
  %10 = getelementptr inbounds nuw i8, ptr %3, i64 16
  store ptr %0, ptr %10, align 8, !tbaa !100
  %11 = load i32, ptr %1, align 8, !tbaa !13
  %12 = icmp slt i32 %11, 0
  br i1 %12, label %_Py_NewRef.exit9, label %13

13:                                               ; preds = %_Py_NewRef.exit
  %14 = add nuw i32 %11, 1
  store i32 %14, ptr %1, align 8, !tbaa !13
  br label %_Py_NewRef.exit9

_Py_NewRef.exit9:                                 ; preds = %_Py_NewRef.exit, %13
  %15 = getelementptr inbounds nuw i8, ptr %3, i64 24
  store ptr %1, ptr %15, align 8, !tbaa !102
  %16 = getelementptr i8, ptr %3, i64 -16
  %17 = tail call align 8 ptr @llvm.threadlocal.address.p0(ptr align 8 @_Py_tss_tstate)
  %18 = load ptr, ptr %17, align 8, !tbaa !15
  %19 = getelementptr inbounds nuw i8, ptr %18, i64 16
  %20 = load ptr, ptr %19, align 8, !tbaa !17
  %21 = getelementptr inbounds nuw i8, ptr %20, i64 7424
  %22 = getelementptr inbounds nuw i8, ptr %20, i64 7432
  %23 = load i64, ptr %22, align 8, !tbaa !27
  %24 = inttoptr i64 %23 to ptr
  %25 = ptrtoint ptr %16 to i64
  %26 = load i64, ptr %24, align 8, !tbaa !29
  %27 = and i64 %26, 3
  %28 = or i64 %27, %25
  store i64 %28, ptr %24, align 8, !tbaa !29
  %29 = getelementptr i8, ptr %3, i64 -8
  %30 = load i64, ptr %29, align 8, !tbaa !27
  %31 = and i64 %30, 3
  %32 = or i64 %31, %23
  store i64 %32, ptr %29, align 8, !tbaa !27
  %33 = getelementptr inbounds nuw i8, ptr %20, i64 7632
  %34 = load i32, ptr %33, align 8, !tbaa !30
  %35 = xor i32 %34, 1
  %36 = sext i32 %35 to i64
  %37 = ptrtoint ptr %21 to i64
  %38 = or i64 %36, %37
  store i64 %38, ptr %16, align 8, !tbaa !29
  store i64 %25, ptr %22, align 8, !tbaa !27
  br label %39

39:                                               ; preds = %2, %_Py_NewRef.exit9
  ret ptr %3
}